; Function Attrs: mustprogress uwtable
define dso_local noundef zeroext i1 @_ZN20cmFindPackageCommand14CheckDirectoryERKNSt7__cxx1112basic_stringIcSt11char_traitsIcESaIcEEE(ptr noundef nonnull align 8 dereferenceable(1104) %0, ptr noundef nonnull align 8 dereferenceable(32) %1) local_unnamed_addr #3 align 2 personality ptr @__gxx_personality_v0 {
  %3 = alloca %"class.std::__cxx11::basic_string", align 8
  %4 = tail call noundef i64 @_ZNKSt7__cxx1112basic_stringIcSt11char_traitsIcESaIcEE4sizeEv(ptr noundef nonnull align 8 dereferenceable(32) %1) #23
  %5 = add i64 %4, -1
  call void @_ZNKSt7__cxx1112basic_stringIcSt11char_traitsIcESaIcEE6substrEmm(ptr dead_on_unwind nonnull writable sret(%"class.std::__cxx11::basic_string") align 8 %3, ptr noundef nonnull align 8 dereferenceable(32) %1, i64 noundef 0, i64 noundef %5)
  %6 = getelementptr inbounds i8, ptr %0, i64 752
  %7 = invoke noundef zeroext i1 @_ZN20cmFindPackageCommand14FindConfigFileERKNSt7__cxx1112basic_stringIcSt11char_traitsIcESaIcEEERS5_(ptr noundef nonnull align 8 dereferenceable(1104) %0, ptr noundef nonnull align 8 dereferenceable(32) %3, ptr noundef nonnull align 8 dereferenceable(32) %6)
          to label %8 unwind label %10

8:                                                ; preds = %2
  br i1 %7, label %9, label %12

9:                                                ; preds = %8
  invoke void @_ZN5cmsys11SystemTools20ConvertToUnixSlashesERNSt7__cxx1112basic_stringIcSt11char_traitsIcESaIcEEE(ptr noundef nonnull align 8 dereferenceable(32) %6)
          to label %12 unwind label %10

10:                                               ; preds = %9, %2
  %11 = landingpad { ptr, i32 }
          cleanup
  call void @_ZNSt7__cxx1112basic_stringIcSt11char_traitsIcESaIcEED1Ev(ptr noundef nonnull align 8 dereferenceable(32) %3) #23
  resume { ptr, i32 } %11

12:                                               ; preds = %8, %9
  call void @_ZNSt7__cxx1112basic_stringIcSt11char_traitsIcESaIcEED1Ev(ptr noundef nonnull align 8 dereferenceable(32) %3) #23
  ret i1 %7
}